; Function Attrs: mustprogress nounwind uwtable
define hidden void @_ZN14GenerateOopMap8ppop_anyEi(ptr nocapture noundef nonnull align 8 dereferenceable(176) %0, i32 noundef %1) local_unnamed_addr #0 align 2 {
  %3 = getelementptr inbounds i8, ptr %0, i64 88
  %4 = load i32, ptr %3, align 8
  %.not = icmp slt i32 %4, %1
  br i1 %.not, label %7, label %5

5:                                                ; preds = %2
  %6 = sub nsw i32 %4, %1
  store i32 %6, ptr %3, align 8
  br label %8

7:                                                ; preds = %2
  tail call void (ptr, ptr, ...) @_ZN14GenerateOopMap12report_errorEPKcz(ptr noundef nonnull align 8 dereferenceable(176) %0, ptr noundef nonnull @.str.78)
  br label %8

8:                                                ; preds = %7, %5
  ret void
}